target datalayout = "e-m:e-p270:32:32-p271:32:32-p272:64:64-i64:64-i128:128-f80:128-n8:16:32:64-S128"
target triple = "x86_64-pc-linux-gnu"

%struct.lexbor_shs_entry_t = type { ptr, ptr, i64, i64 }
%struct.lexbor_hash_entry = type { %union.anon, i64, ptr }
%union.anon = type { ptr, [16 x i8] }
%struct.lxb_ns_prefix_data_t = type { %struct.lexbor_hash_entry, i64, i64, i8 }

@lexbor_hash_insert_lower = external global ptr, align 8

; Function Attrs: nounwind uwtable
define hidden ptr @lxb_ns_prefix_append(ptr noundef %0, ptr noundef %1, i64 noundef %2) #0 {
  %4 = alloca ptr, align 8
  %5 = alloca ptr, align 8
  %6 = alloca ptr, align 8
  %7 = alloca i64, align 8
  %8 = alloca ptr, align 8
  %9 = alloca ptr, align 8
  store ptr %0, ptr %5, align 8
  store ptr %1, ptr %6, align 8
  store i64 %2, ptr %7, align 8
  %10 = load ptr, ptr %6, align 8
  %11 = icmp eq ptr %10, null
  br i1 %11, label %15, label %12

12:                                               ; preds = %3
  %13 = load i64, ptr %7, align 8
  %14 = icmp eq i64 %13, 0
  br i1 %14, label %15, label %16

15:                                               ; preds = %12, %3
  store ptr null, ptr %4, align 8
  br label %42

16:                                               ; preds = %12
  %17 = load ptr, ptr %6, align 8
  %18 = load i64, ptr %7, align 8
  %19 = call ptr @lexbor_shs_entry_get_lower_static(ptr noundef @lxb_ns_res_shs_data, ptr noundef %17, i64 noundef %18)
  store ptr %19, ptr %9, align 8
  %20 = load ptr, ptr %9, align 8
  %21 = icmp ne ptr %20, null
  br i1 %21, label %22, label %26

22:                                               ; preds = %16
  %23 = load ptr, ptr %9, align 8
  %24 = getelementptr inbounds %struct.lexbor_shs_entry_t, ptr %23, i32 0, i32 1
  %25 = load ptr, ptr %24, align 8
  store ptr %25, ptr %4, align 8
  br label %42

26:                                               ; preds = %16
  %27 = load ptr, ptr %5, align 8
  %28 = load ptr, ptr @lexbor_hash_insert_lower, align 8
  %29 = load ptr, ptr %6, align 8
  %30 = load i64, ptr %7, align 8
  %31 = call ptr @lexbor_hash_insert(ptr noundef %27, ptr noundef %28, ptr noundef %29, i64 noundef %30)
  store ptr %31, ptr %8, align 8
  %32 = load ptr, ptr %8, align 8
  %33 = ptrtoint ptr %32 to i64
  %34 = icmp ule i64 %33, 8
  br i1 %34, label %35, label %36

35:                                               ; preds = %26
  store ptr null, ptr %4, align 8
  br label %42

36:                                               ; preds = %26
  %37 = load ptr, ptr %8, align 8
  %38 = ptrtoint ptr %37 to i64
  %39 = load ptr, ptr %8, align 8
  %40 = getelementptr inbounds %struct.lxb_ns_prefix_data_t, ptr %39, i32 0, i32 1
  store i64 %38, ptr %40, align 8
  %41 = load ptr, ptr %8, align 8
  store ptr %41, ptr %4, align 8
  br label %42

42:                                               ; preds = %36, %35, %22, %15
  %43 = load ptr, ptr %4, align 8
  ret ptr %43
}