; Function Attrs: nounwind uwtable
define hidden ptr @lxb_ns_prefix_append(ptr noundef %0, ptr noundef %1, i64 noundef %2) local_unnamed_addr #0 {
  %4 = icmp eq ptr %1, null
  %5 = icmp eq i64 %2, 0
  %or.cond = or i1 %4, %5
  br i1 %or.cond, label %18, label %6

6:                                                ; preds = %3
  %7 = tail call ptr @lexbor_shs_entry_get_lower_static(ptr noundef nonnull @lxb_ns_res_shs_data, ptr noundef nonnull %1, i64 noundef %2) #4
  %.not = icmp eq ptr %7, null
  br i1 %.not, label %11, label %8

8:                                                ; preds = %6
  %9 = getelementptr inbounds i8, ptr %7, i64 8
  %10 = load ptr, ptr %9, align 8
  br label %18

11:                                               ; preds = %6
  %12 = load ptr, ptr @lexbor_hash_insert_lower, align 8
  %13 = tail call ptr @lexbor_hash_insert(ptr noundef %0, ptr noundef %12, ptr noundef nonnull %1, i64 noundef %2) #4
  %14 = icmp ult ptr %13, inttoptr (i64 9 to ptr)
  br i1 %14, label %18, label %15

15:                                               ; preds = %11
  %16 = ptrtoint ptr %13 to i64
  %17 = getelementptr inbounds i8, ptr %13, i64 40
  store i64 %16, ptr %17, align 8
  br label %18

18:                                               ; preds = %11, %3, %15, %8
  %.0 = phi ptr [ %10, %8 ], [ %13, %15 ], [ null, %3 ], [ null, %11 ]
  ret ptr %.0
}